target datalayout = "e-m:e-p270:32:32-p271:32:32-p272:64:64-i64:64-i128:128-f80:128-n8:16:32:64-S128"
target triple = "x86_64-pc-linux-gnu"

@.str = private unnamed_addr constant [55 x i8] c"Recompile with DUMP_COUNTERS defined to see counters.\0A\00", align 1

; Function Attrs: mustprogress nounwind uwtable
define void @_ZN7glslang21OS_DumpMemoryCountersEv() #0 {
  %1 = call i32 (ptr, ...) @printf(ptr noundef @.str)
  ret void
}

declare i32 @printf(ptr noundef, ...) #1


!llvm.module.flags = !{!0, !1, !2, !3}

!0 = !{i32 1, !"wchar_size", i32 4}
!1 = !{i32 8, !"PIC Level", i32 2}
!2 = !{i32 7, !"uwtable", i32 2}
!3 = !{i32 7, !"frame-pointer", i32 2}
