; ModuleID = 'bench/glslang/original/ossource.cpp.ll'
source_filename = "bench/glslang/original/ossource.cpp.ll"
target datalayout = "e-m:e-p270:32:32-p271:32:32-p272:64:64-i64:64-i128:128-f80:128-n8:16:32:64-S128"
target triple = "x86_64-pc-linux-gnu"

@str = private unnamed_addr constant [54 x i8] c"Recompile with DUMP_COUNTERS defined to see counters.\00", align 1

; Function Attrs: mustprogress nofree nounwind uwtable
define void @_ZN7glslang21OS_DumpMemoryCountersEv() local_unnamed_addr #0 {
  %puts = tail call i32 @puts(ptr nonnull dereferenceable(1) @str)
  ret void
}

; Function Attrs: nofree nounwind
declare noundef i32 @puts(ptr noundef readonly captures(none)) local_unnamed_addr #1


!llvm.module.flags = !{!0, !1, !2, !3}

!0 = !{i32 1, !"wchar_size", i32 4}
!1 = !{i32 8, !"PIC Level", i32 2}
!2 = !{i32 7, !"uwtable", i32 2}
!3 = !{i32 7, !"frame-pointer", i32 2}
